target datalayout = "e-m:e-p270:32:32-p271:32:32-p272:64:64-i64:64-i128:128-f80:128-n8:16:32:64-S128"
target triple = "x86_64-pc-linux-gnu"

%struct.proxy_hwm_cfg_t = type { ptr, i32, [4 x ptr], [4 x ptr], ptr }
%struct.zmq_msg_t = type { [64 x i8] }

@.str = private unnamed_addr constant [33 x i8] c"%s failed%s%s%s, errno = %i (%s)\00", align 1
@.str.1 = private unnamed_addr constant [20 x i8] c" (additional info: \00", align 1
@.str.2 = private unnamed_addr constant [1 x i8] zeroinitializer, align 1
@.str.3 = private unnamed_addr constant [2 x i8] c")\00", align 1
@_ZL12message_size = internal global i64 0, align 8
@_ZL13message_count = internal global i64 0, align 8
@.str.18 = private unnamed_addr constant [21 x i8] c"zmq_msg_close (&msg)\00", align 1
@.str.19 = private unnamed_addr constant [70 x i8] c"zmq_setsockopt (pubsocket, ZMQ_XPUB_NODROP, &optval, sizeof (optval))\00", align 1
@.str.20 = private unnamed_addr constant [67 x i8] c"zmq_setsockopt (pubsocket, ZMQ_SNDTIMEO, &optval, sizeof (optval))\00", align 1
@.str.21 = private unnamed_addr constant [53 x i8] c"zmq_connect (pubsocket, cfg->frontend_endpoint[idx])\00", align 1
@.str.22 = private unnamed_addr constant [49 x i8] c"zmq_recv (pubsocket, buffer, sizeof (buffer), 0)\00", align 1
@.str.23 = private unnamed_addr constant [49 x i8] c"invalid response length: expected 1, received %d\00", align 1
@.str.24 = private unnamed_addr constant [48 x i8] c"invalid response value: expected 1, received %d\00", align 1

; Function Attrs: mustprogress uwtable
define dso_local noundef i32 @_Z40test_assert_success_message_errno_helperiPKcS0_(i32 noundef %0, ptr noundef %1, ptr noundef %2) #0 {
  %4 = alloca i32, align 4
  %5 = alloca ptr, align 8
  %6 = alloca ptr, align 8
  %7 = alloca [512 x i8], align 16
  store i32 %0, ptr %4, align 4, !tbaa !4
  store ptr %1, ptr %5, align 8, !tbaa !8
  store ptr %2, ptr %6, align 8, !tbaa !8
  %8 = load i32, ptr %4, align 4, !tbaa !4
  %9 = icmp eq i32 %8, -1
  br i1 %9, label %10, label %30

10:                                               ; preds = %3
  call void @llvm.lifetime.start.p0(i64 512, ptr %7) #9
  %11 = getelementptr inbounds nuw [512 x i8], ptr %7, i64 0, i64 511
  store i8 0, ptr %11, align 1, !tbaa !11
  %12 = load ptr, ptr %6, align 8, !tbaa !8
  %13 = load ptr, ptr %5, align 8, !tbaa !8
  %14 = icmp ne ptr %13, null
  %15 = select i1 %14, ptr @.str.1, ptr @.str.2
  %16 = load ptr, ptr %5, align 8, !tbaa !8
  %17 = icmp ne ptr %16, null
  br i1 %17, label %18, label %20

18:                                               ; preds = %10
  %19 = load ptr, ptr %5, align 8, !tbaa !8
  br label %21

20:                                               ; preds = %10
  br label %21

21:                                               ; preds = %20, %18
  %22 = phi ptr [ %19, %18 ], [ @.str.2, %20 ]
  %23 = load ptr, ptr %5, align 8, !tbaa !8
  %24 = icmp ne ptr %23, null
  %25 = select i1 %24, ptr @.str.3, ptr @.str.2
  %26 = call i32 @zmq_errno()
  %27 = call i32 @zmq_errno()
  %28 = call ptr @zmq_strerror(i32 noundef %27)
  %29 = call i32 (ptr, ...) @printf(ptr noundef @.str, ptr noundef %12, ptr noundef %15, ptr noundef %22, ptr noundef %25, i32 noundef %26, ptr noundef %28)
  call void @exit(i32 noundef 1) #10
  unreachable

30:                                               ; preds = %3
  %31 = load i32, ptr %4, align 4, !tbaa !4
  ret i32 %31
}

; Function Attrs: mustprogress uwtable
define internal void @_ZL21publisher_thread_mainPv(ptr noundef %0) #0 {
  %2 = alloca ptr, align 8
  %3 = alloca ptr, align 8
  %4 = alloca i32, align 4
  %5 = alloca i32, align 4
  %6 = alloca i32, align 4
  %7 = alloca ptr, align 8
  %8 = alloca [32 x i8], align 16
  %9 = alloca %struct.zmq_msg_t, align 8
  %10 = alloca i64, align 8
  %11 = alloca %struct.zmq_msg_t, align 8
  store ptr %0, ptr %2, align 8, !tbaa !12
  call void @llvm.lifetime.start.p0(i64 8, ptr %3) #9
  %12 = load ptr, ptr %2, align 8, !tbaa !12
  store ptr %12, ptr %3, align 8, !tbaa !12
  call void @llvm.lifetime.start.p0(i64 4, ptr %4) #9
  %13 = load ptr, ptr %3, align 8, !tbaa !12
  %14 = getelementptr inbounds nuw %struct.proxy_hwm_cfg_t, ptr %13, i32 0, i32 1
  %15 = load i32, ptr %14, align 8, !tbaa !22
  store i32 %15, ptr %4, align 4, !tbaa !4
  call void @llvm.lifetime.start.p0(i64 4, ptr %5) #9
  call void @llvm.lifetime.start.p0(i64 4, ptr %6) #9
  call void @llvm.lifetime.start.p0(i64 8, ptr %7) #9
  %16 = load ptr, ptr %3, align 8, !tbaa !12
  %17 = getelementptr inbounds nuw %struct.proxy_hwm_cfg_t, ptr %16, i32 0, i32 0
  %18 = load ptr, ptr %17, align 8, !tbaa !13
  %19 = call ptr @zmq_socket(ptr noundef %18, i32 noundef 9)
  store ptr %19, ptr %7, align 8, !tbaa !12
  %20 = load ptr, ptr %7, align 8, !tbaa !12
  call void @_ZL7set_hwmPv(ptr noundef %20)
  store i32 1, ptr %5, align 4, !tbaa !4
  %21 = load ptr, ptr %7, align 8, !tbaa !12
  %22 = call i32 @zmq_setsockopt(ptr noundef %21, i32 noundef 69, ptr noundef %5, i64 noundef 4)
  %23 = call noundef i32 @_Z40test_assert_success_message_errno_helperiPKcS0_(i32 noundef %22, ptr noundef null, ptr noundef @.str.19)
  store i32 1, ptr %5, align 4, !tbaa !4
  %24 = load ptr, ptr %7, align 8, !tbaa !12
  %25 = call i32 @zmq_setsockopt(ptr noundef %24, i32 noundef 28, ptr noundef %5, i64 noundef 4)
  %26 = call noundef i32 @_Z40test_assert_success_message_errno_helperiPKcS0_(i32 noundef %25, ptr noundef null, ptr noundef @.str.20)
  %27 = load ptr, ptr %7, align 8, !tbaa !12
  %28 = load ptr, ptr %3, align 8, !tbaa !12
  %29 = getelementptr inbounds nuw %struct.proxy_hwm_cfg_t, ptr %28, i32 0, i32 2
  %30 = load i32, ptr %4, align 4, !tbaa !4
  %31 = sext i32 %30 to i64
  %32 = getelementptr inbounds [4 x ptr], ptr %29, i64 0, i64 %31
  %33 = load ptr, ptr %32, align 8, !tbaa !8
  %34 = call i32 @zmq_connect(ptr noundef %27, ptr noundef %33)
  %35 = call noundef i32 @_Z40test_assert_success_message_errno_helperiPKcS0_(i32 noundef %34, ptr noundef null, ptr noundef @.str.21)
  call void @llvm.lifetime.start.p0(i64 32, ptr %8) #9
  call void @llvm.memset.p0.i64(ptr align 16 %8, i8 0, i64 32, i1 false)
  %36 = load ptr, ptr %7, align 8, !tbaa !12
  %37 = getelementptr inbounds [32 x i8], ptr %8, i64 0, i64 0
  %38 = call i32 @zmq_recv(ptr noundef %36, ptr noundef %37, i64 noundef 32, i32 noundef 0)
  %39 = call noundef i32 @_Z40test_assert_success_message_errno_helperiPKcS0_(i32 noundef %38, ptr noundef null, ptr noundef @.str.22)
  store i32 %39, ptr %6, align 4, !tbaa !4
  %40 = load i32, ptr %6, align 4, !tbaa !4
  %41 = icmp ne i32 %40, 1
  br i1 %41, label %42, label %45

42:                                               ; preds = %1
  %43 = load i32, ptr %6, align 4, !tbaa !4
  %44 = call i32 (ptr, ...) @printf(ptr noundef @.str.23, i32 noundef %43)
  call void @exit(i32 noundef 1) #10
  unreachable

45:                                               ; preds = %1
  %46 = getelementptr inbounds [32 x i8], ptr %8, i64 0, i64 0
  %47 = load i8, ptr %46, align 16, !tbaa !11
  %48 = sext i8 %47 to i32
  %49 = icmp ne i32 %48, 1
  br i1 %49, label %50, label %55

50:                                               ; preds = %45
  %51 = getelementptr inbounds [32 x i8], ptr %8, i64 0, i64 0
  %52 = load i8, ptr %51, align 16, !tbaa !11
  %53 = sext i8 %52 to i32
  %54 = call i32 (ptr, ...) @printf(ptr noundef @.str.24, i32 noundef %53)
  call void @exit(i32 noundef 1) #10
  unreachable

55:                                               ; preds = %45
  call void @llvm.lifetime.start.p0(i64 64, ptr %9) #9
  %56 = load i64, ptr @_ZL12message_size, align 8, !tbaa !19
  %57 = call i32 @zmq_msg_init_size(ptr noundef %9, i64 noundef %56)
  store i32 %57, ptr %6, align 4, !tbaa !4
  %58 = call ptr @zmq_msg_data(ptr noundef %9)
  %59 = call i64 @zmq_msg_size(ptr noundef %9)
  call void @llvm.memset.p0.i64(ptr align 1 %58, i8 65, i64 %59, i1 false)
  call void @llvm.lifetime.start.p0(i64 8, ptr %10) #9
  store i64 0, ptr %10, align 8, !tbaa !19
  br label %60

60:                                               ; preds = %77, %55
  %61 = load i64, ptr %10, align 8, !tbaa !19
  %62 = load i64, ptr @_ZL13message_count, align 8, !tbaa !19
  %63 = icmp ult i64 %61, %62
  br i1 %63, label %64, label %78

64:                                               ; preds = %60
  call void @llvm.lifetime.start.p0(i64 64, ptr %11) #9
  %65 = call i32 @zmq_msg_init(ptr noundef %11)
  %66 = call i32 @zmq_msg_copy(ptr noundef %11, ptr noundef %9)
  store i32 %66, ptr %6, align 4, !tbaa !4
  %67 = load ptr, ptr %7, align 8, !tbaa !12
  %68 = call i32 @zmq_msg_send(ptr noundef %11, ptr noundef %67, i32 noundef 0)
  store i32 %68, ptr %6, align 4, !tbaa !4
  %69 = load i32, ptr %6, align 4, !tbaa !4
  %70 = icmp ne i32 %69, -1
  br i1 %70, label %71, label %74

71:                                               ; preds = %64
  %72 = load i64, ptr %10, align 8, !tbaa !19
  %73 = add i64 %72, 1
  store i64 %73, ptr %10, align 8, !tbaa !19
  br label %77

74:                                               ; preds = %64
  %75 = call i32 @zmq_msg_close(ptr noundef %11)
  %76 = call noundef i32 @_Z40test_assert_success_message_errno_helperiPKcS0_(i32 noundef %75, ptr noundef null, ptr noundef @.str.18)
  br label %77

77:                                               ; preds = %74, %71
  call void @llvm.lifetime.end.p0(i64 64, ptr %11) #9
  br label %60, !llvm.loop !33

78:                                               ; preds = %60
  %79 = load ptr, ptr %7, align 8, !tbaa !12
  %80 = call i32 @zmq_close(ptr noundef %79)
  call void @llvm.lifetime.end.p0(i64 8, ptr %10) #9
  call void @llvm.lifetime.end.p0(i64 64, ptr %9) #9
  call void @llvm.lifetime.end.p0(i64 32, ptr %8) #9
  call void @llvm.lifetime.end.p0(i64 8, ptr %7) #9
  call void @llvm.lifetime.end.p0(i64 4, ptr %6) #9
  call void @llvm.lifetime.end.p0(i64 4, ptr %5) #9
  call void @llvm.lifetime.end.p0(i64 4, ptr %4) #9
  call void @llvm.lifetime.end.p0(i64 8, ptr %3) #9
  ret void
}