; Function Attrs: mustprogress uwtable
define internal void @_ZL21publisher_thread_mainPv(ptr noundef readonly captures(none) %0) #0 {
  %2 = alloca i32, align 4
  %3 = alloca [32 x i8], align 16
  %4 = alloca %struct.zmq_msg_t, align 8
  %5 = alloca %struct.zmq_msg_t, align 8
  %6 = getelementptr inbounds nuw i8, ptr %0, i64 8
  %7 = load i32, ptr %6, align 8, !tbaa !20
  call void @llvm.lifetime.start.p0(i64 4, ptr nonnull %2) #11
  %8 = load ptr, ptr %0, align 8, !tbaa !4
  %9 = tail call ptr @zmq_socket(ptr noundef %8, i32 noundef 9)
  tail call fastcc void @_ZL7set_hwmPv(ptr noundef %9)
  store i32 1, ptr %2, align 4, !tbaa !16
  %10 = call i32 @zmq_setsockopt(ptr noundef %9, i32 noundef 69, ptr noundef nonnull %2, i64 noundef 4)
  %11 = icmp eq i32 %10, -1
  br i1 %11, label %12, label %_Z40test_assert_success_message_errno_helperiPKcS0_.exit

12:                                               ; preds = %1
  %13 = call i32 @zmq_errno()
  %14 = call i32 @zmq_errno()
  %15 = call ptr @zmq_strerror(i32 noundef %14)
  %16 = call i32 (ptr, ...) @printf(ptr noundef nonnull dereferenceable(1) @.str, ptr noundef nonnull @.str.19, ptr noundef nonnull @.str.2, ptr noundef nonnull @.str.2, ptr noundef nonnull @.str.2, i32 noundef %13, ptr noundef %15)
  call void @exit(i32 noundef 1) #10
  unreachable

_Z40test_assert_success_message_errno_helperiPKcS0_.exit: ; preds = %1
  store i32 1, ptr %2, align 4, !tbaa !16
  %17 = call i32 @zmq_setsockopt(ptr noundef %9, i32 noundef 28, ptr noundef nonnull %2, i64 noundef 4)
  %18 = icmp eq i32 %17, -1
  br i1 %18, label %19, label %_Z40test_assert_success_message_errno_helperiPKcS0_.exit20

19:                                               ; preds = %_Z40test_assert_success_message_errno_helperiPKcS0_.exit
  %20 = call i32 @zmq_errno()
  %21 = call i32 @zmq_errno()
  %22 = call ptr @zmq_strerror(i32 noundef %21)
  %23 = call i32 (ptr, ...) @printf(ptr noundef nonnull dereferenceable(1) @.str, ptr noundef nonnull @.str.20, ptr noundef nonnull @.str.2, ptr noundef nonnull @.str.2, ptr noundef nonnull @.str.2, i32 noundef %20, ptr noundef %22)
  call void @exit(i32 noundef 1) #10
  unreachable

_Z40test_assert_success_message_errno_helperiPKcS0_.exit20: ; preds = %_Z40test_assert_success_message_errno_helperiPKcS0_.exit
  %24 = getelementptr inbounds nuw i8, ptr %0, i64 16
  %25 = sext i32 %7 to i64
  %26 = getelementptr inbounds [4 x ptr], ptr %24, i64 0, i64 %25
  %27 = load ptr, ptr %26, align 8, !tbaa !12
  %28 = call i32 @zmq_connect(ptr noundef %9, ptr noundef %27)
  %29 = icmp eq i32 %28, -1
  br i1 %29, label %30, label %_Z40test_assert_success_message_errno_helperiPKcS0_.exit21

30:                                               ; preds = %_Z40test_assert_success_message_errno_helperiPKcS0_.exit20
  %31 = call i32 @zmq_errno()
  %32 = call i32 @zmq_errno()
  %33 = call ptr @zmq_strerror(i32 noundef %32)
  %34 = call i32 (ptr, ...) @printf(ptr noundef nonnull dereferenceable(1) @.str, ptr noundef nonnull @.str.21, ptr noundef nonnull @.str.2, ptr noundef nonnull @.str.2, ptr noundef nonnull @.str.2, i32 noundef %31, ptr noundef %33)
  call void @exit(i32 noundef 1) #10
  unreachable

_Z40test_assert_success_message_errno_helperiPKcS0_.exit21: ; preds = %_Z40test_assert_success_message_errno_helperiPKcS0_.exit20
  call void @llvm.lifetime.start.p0(i64 32, ptr nonnull %3) #11
  call void @llvm.memset.p0.i64(ptr noundef nonnull align 16 dereferenceable(32) %3, i8 0, i64 32, i1 false)
  %35 = call i32 @zmq_recv(ptr noundef %9, ptr noundef nonnull %3, i64 noundef 32, i32 noundef 0)
  switch i32 %35, label %41 [
    i32 -1, label %36
    i32 1, label %43
  ]

36:                                               ; preds = %_Z40test_assert_success_message_errno_helperiPKcS0_.exit21
  %37 = call i32 @zmq_errno()
  %38 = call i32 @zmq_errno()
  %39 = call ptr @zmq_strerror(i32 noundef %38)
  %40 = call i32 (ptr, ...) @printf(ptr noundef nonnull dereferenceable(1) @.str, ptr noundef nonnull @.str.22, ptr noundef nonnull @.str.2, ptr noundef nonnull @.str.2, ptr noundef nonnull @.str.2, i32 noundef %37, ptr noundef %39)
  call void @exit(i32 noundef 1) #10
  unreachable

41:                                               ; preds = %_Z40test_assert_success_message_errno_helperiPKcS0_.exit21
  %42 = call i32 (ptr, ...) @printf(ptr noundef nonnull dereferenceable(1) @.str.23, i32 noundef %35)
  call void @exit(i32 noundef 1) #10
  unreachable

43:                                               ; preds = %_Z40test_assert_success_message_errno_helperiPKcS0_.exit21
  %44 = load i8, ptr %3, align 16, !tbaa !21
  %.not18 = icmp eq i8 %44, 1
  br i1 %.not18, label %48, label %45

45:                                               ; preds = %43
  %46 = sext i8 %44 to i32
  %47 = call i32 (ptr, ...) @printf(ptr noundef nonnull dereferenceable(1) @.str.24, i32 noundef %46)
  call void @exit(i32 noundef 1) #10
  unreachable

48:                                               ; preds = %43
  call void @llvm.lifetime.start.p0(i64 64, ptr nonnull %4) #11
  %49 = load i64, ptr @_ZL12message_size, align 8, !tbaa !13
  %50 = call i32 @zmq_msg_init_size(ptr noundef nonnull %4, i64 noundef %49)
  %51 = call ptr @zmq_msg_data(ptr noundef nonnull %4)
  %52 = call i64 @zmq_msg_size(ptr noundef nonnull %4)
  call void @llvm.memset.p0.i64(ptr align 1 %51, i8 65, i64 %52, i1 false)
  %53 = load i64, ptr @_ZL13message_count, align 8, !tbaa !13
  %.not = icmp eq i64 %53, 0
  br i1 %.not, label %._crit_edge, label %.lr.ph

.lr.ph:                                           ; preds = %48, %_Z40test_assert_success_message_errno_helperiPKcS0_.exit23
  %.024 = phi i64 [ %.1, %_Z40test_assert_success_message_errno_helperiPKcS0_.exit23 ], [ 0, %48 ]
  call void @llvm.lifetime.start.p0(i64 64, ptr nonnull %5) #11
  %54 = call i32 @zmq_msg_init(ptr noundef nonnull %5)
  %55 = call i32 @zmq_msg_copy(ptr noundef nonnull %5, ptr noundef nonnull %4)
  %56 = call i32 @zmq_msg_send(ptr noundef nonnull %5, ptr noundef %9, i32 noundef 0)
  %.not19 = icmp eq i32 %56, -1
  br i1 %.not19, label %59, label %57

57:                                               ; preds = %.lr.ph
  %58 = add nuw i64 %.024, 1
  br label %_Z40test_assert_success_message_errno_helperiPKcS0_.exit23

59:                                               ; preds = %.lr.ph
  %60 = call i32 @zmq_msg_close(ptr noundef nonnull %5)
  %61 = icmp eq i32 %60, -1
  br i1 %61, label %62, label %_Z40test_assert_success_message_errno_helperiPKcS0_.exit23

62:                                               ; preds = %59
  %63 = call i32 @zmq_errno()
  %64 = call i32 @zmq_errno()
  %65 = call ptr @zmq_strerror(i32 noundef %64)
  %66 = call i32 (ptr, ...) @printf(ptr noundef nonnull dereferenceable(1) @.str, ptr noundef nonnull @.str.18, ptr noundef nonnull @.str.2, ptr noundef nonnull @.str.2, ptr noundef nonnull @.str.2, i32 noundef %63, ptr noundef %65)
  call void @exit(i32 noundef 1) #10
  unreachable

_Z40test_assert_success_message_errno_helperiPKcS0_.exit23: ; preds = %59, %57
  %.1 = phi i64 [ %58, %57 ], [ %.024, %59 ]
  call void @llvm.lifetime.end.p0(i64 64, ptr nonnull %5) #11
  %67 = load i64, ptr @_ZL13message_count, align 8, !tbaa !13
  %68 = icmp ult i64 %.1, %67
  br i1 %68, label %.lr.ph, label %._crit_edge, !llvm.loop !22

._crit_edge:                                      ; preds = %_Z40test_assert_success_message_errno_helperiPKcS0_.exit23, %48
  %69 = call i32 @zmq_close(ptr noundef %9)
  call void @llvm.lifetime.end.p0(i64 64, ptr nonnull %4) #11
  call void @llvm.lifetime.end.p0(i64 32, ptr nonnull %3) #11
  call void @llvm.lifetime.end.p0(i64 4, ptr nonnull %2) #11
  ret void
}